; ModuleID = 'source-C-CXX/25/1128.c'
source_filename = "source-C-CXX/25/1128.c"
target datalayout = "e-m:e-p270:32:32-p271:32:32-p272:64:64-i64:64-f80:128-n8:16:32:64-S128"
target triple = "x86_64-pc-linux-gnu"

; Function Attrs: nounwind sspstrong uwtable
define dso_local i32 @main() local_unnamed_addr #0 {
  %1 = alloca [110 x i8], align 16
  %2 = alloca [100 x i8], align 16
  %3 = getelementptr inbounds [110 x i8], [110 x i8]* %1, i64 0, i64 0
  call void @llvm.lifetime.start.p0i8(i64 110, i8* nonnull %3) #6
  call void @llvm.memset.p0i8.i64(i8* noundef nonnull align 16 dereferenceable(110) %3, i8 0, i64 110, i1 false)
  %4 = getelementptr inbounds [100 x i8], [100 x i8]* %2, i64 0, i64 0
  call void @llvm.lifetime.start.p0i8(i64 100, i8* nonnull %4) #6
  call void @llvm.memset.p0i8.i64(i8* noundef nonnull align 16 dereferenceable(100) %4, i8 0, i64 100, i1 false)
  %5 = call i32 (i8*, ...) bitcast (i32 (...)* @gets to i32 (i8*, ...)*)(i8* nonnull %3) #6
  %6 = call i64 @strlen(i8* noundef nonnull %3) #7
  %7 = trunc i64 %6 to i32
  %8 = icmp sgt i32 %7, 1
  br i1 %8, label %13, label %9

9:                                                ; preds = %0
  %10 = load i8, i8* %3, align 16, !tbaa !5
  %11 = sext i8 %10 to i32
  %12 = call i32 @putchar(i32 %11)
  br label %54

13:                                               ; preds = %0
  %14 = and i64 %6, 4294967295
  %15 = load i8, i8* %3, align 16, !tbaa !5
  br label %16

16:                                               ; preds = %13, %35
  %17 = phi i8 [ %15, %13 ], [ %36, %35 ]
  %18 = phi i64 [ 1, %13 ], [ %38, %35 ]
  %19 = phi i32 [ 0, %13 ], [ %37, %35 ]
  %20 = icmp eq i8 %17, 32
  %21 = getelementptr inbounds [110 x i8], [110 x i8]* %1, i64 0, i64 %18
  %22 = load i8, i8* %21, align 1, !tbaa !5
  %23 = icmp eq i8 %22, 32
  br i1 %20, label %30, label %24

24:                                               ; preds = %16
  %25 = add nsw i32 %19, 1
  %26 = sext i32 %19 to i64
  %27 = getelementptr inbounds [100 x i8], [100 x i8]* %2, i64 0, i64 %26
  br i1 %23, label %29, label %28

28:                                               ; preds = %24
  store i8 %22, i8* %27, align 1, !tbaa !5
  br label %35

29:                                               ; preds = %24
  store i8 32, i8* %27, align 1, !tbaa !5
  br label %35

30:                                               ; preds = %16
  br i1 %23, label %35, label %31

31:                                               ; preds = %30
  %32 = add nsw i32 %19, 1
  %33 = sext i32 %19 to i64
  %34 = getelementptr inbounds [100 x i8], [100 x i8]* %2, i64 0, i64 %33
  store i8 %22, i8* %34, align 1, !tbaa !5
  br label %35

35:                                               ; preds = %28, %29, %30, %31
  %36 = phi i8 [ %22, %31 ], [ 32, %30 ], [ %22, %28 ], [ 32, %29 ]
  %37 = phi i32 [ %32, %31 ], [ %19, %30 ], [ %25, %28 ], [ %25, %29 ]
  %38 = add nuw nsw i64 %18, 1
  %39 = icmp eq i64 %38, %14
  br i1 %39, label %40, label %16, !llvm.loop !8

40:                                               ; preds = %35
  %41 = sext i8 %15 to i32
  %42 = call i32 @putchar(i32 %41)
  %43 = icmp sgt i32 %37, 0
  br i1 %43, label %44, label %54

44:                                               ; preds = %40
  %45 = zext i32 %37 to i64
  br label %46

46:                                               ; preds = %44, %46
  %47 = phi i64 [ 0, %44 ], [ %52, %46 ]
  %48 = getelementptr inbounds [100 x i8], [100 x i8]* %2, i64 0, i64 %47
  %49 = load i8, i8* %48, align 1, !tbaa !5
  %50 = sext i8 %49 to i32
  %51 = call i32 @putchar(i32 %50)
  %52 = add nuw nsw i64 %47, 1
  %53 = icmp eq i64 %52, %45
  br i1 %53, label %54, label %46, !llvm.loop !10

54:                                               ; preds = %46, %9, %40
  call void @llvm.lifetime.end.p0i8(i64 100, i8* nonnull %4) #6
  call void @llvm.lifetime.end.p0i8(i64 110, i8* nonnull %3) #6
  ret i32 0
}

; Function Attrs: argmemonly mustprogress nofree nosync nounwind willreturn
declare void @llvm.lifetime.start.p0i8(i64 immarg, i8* nocapture) #1

; Function Attrs: argmemonly mustprogress nofree nounwind willreturn writeonly
declare void @llvm.memset.p0i8.i64(i8* nocapture writeonly, i8, i64, i1 immarg) #2

declare i32 @gets(...) local_unnamed_addr #3

; Function Attrs: argmemonly mustprogress nofree nounwind readonly willreturn
declare i64 @strlen(i8* nocapture) local_unnamed_addr #4

; Function Attrs: argmemonly mustprogress nofree nosync nounwind willreturn
declare void @llvm.lifetime.end.p0i8(i64 immarg, i8* nocapture) #1

; Function Attrs: nofree nounwind
declare noundef i32 @putchar(i32 noundef) local_unnamed_addr #5


!llvm.module.flags = !{!0, !1, !2, !3}
!llvm.ident = !{!4}

!0 = !{i32 1, !"wchar_size", i32 4}
!1 = !{i32 7, !"PIC Level", i32 2}
!2 = !{i32 7, !"PIE Level", i32 2}
!3 = !{i32 7, !"uwtable", i32 1}
!4 = !{!"clang version 13.0.0"}
!5 = !{!6, !6, i64 0}
!6 = !{!"omnipotent char", !7, i64 0}
!7 = !{!"Simple C/C++ TBAA"}
!8 = distinct !{!8, !9}
!9 = !{!"llvm.loop.mustprogress"}
!10 = distinct !{!10, !9}
